target datalayout = "e-m:e-p270:32:32-p271:32:32-p272:64:64-i64:64-i128:128-f80:128-n8:16:32:64-S128"
target triple = "x86_64-pc-linux-gnu"

%struct.Agobj_s = type { %struct.Agtag_s, ptr }
%struct.Agtag_s = type { i32, i64 }
%struct.Agrec_s = type { ptr, ptr }
%struct.Agedge_s = type { %struct.Agobj_s, %struct.dtlink_s_, %struct.dtlink_s_, ptr }
%struct.dtlink_s_ = type { ptr, %union.anon }
%union.anon = type { ptr }

@.str = private unnamed_addr constant [33 x i8] c"move to front lock inconsistency\00", align 1

; Function Attrs: nounwind uwtable
define internal void @set_data(ptr noundef %0, ptr noundef %1, i1 noundef zeroext %2) #0 {
  %4 = alloca ptr, align 8
  %5 = alloca ptr, align 8
  %6 = alloca i8, align 1
  %7 = alloca ptr, align 8
  store ptr %0, ptr %4, align 8, !tbaa !11
  store ptr %1, ptr %5, align 8, !tbaa !18
  %8 = zext i1 %2 to i8
  store i8 %8, ptr %6, align 1, !tbaa !24
  call void @llvm.lifetime.start.p0(i64 8, ptr %7) #10
  %9 = load ptr, ptr %5, align 8, !tbaa !18
  %10 = load ptr, ptr %4, align 8, !tbaa !11
  %11 = getelementptr inbounds nuw %struct.Agobj_s, ptr %10, i32 0, i32 1
  store ptr %9, ptr %11, align 8, !tbaa !13
  %12 = load i8, ptr %6, align 1, !tbaa !24, !range !26, !noundef !27
  %13 = trunc i8 %12 to i1
  %14 = zext i1 %13 to i32
  %15 = load ptr, ptr %4, align 8, !tbaa !11
  %16 = getelementptr inbounds nuw %struct.Agobj_s, ptr %15, i32 0, i32 0
  %17 = load i32, ptr %16, align 8
  %18 = and i32 %14, 1
  %19 = shl i32 %18, 2
  %20 = and i32 %17, -5
  %21 = or i32 %20, %19
  store i32 %21, ptr %16, align 8
  %22 = load ptr, ptr %4, align 8, !tbaa !11
  %23 = getelementptr inbounds nuw %struct.Agobj_s, ptr %22, i32 0, i32 0
  %24 = load i32, ptr %23, align 8
  %25 = and i32 %24, 3
  %26 = icmp eq i32 %25, 3
  br i1 %26, label %33, label %27

27:                                               ; preds = %3
  %28 = load ptr, ptr %4, align 8, !tbaa !11
  %29 = getelementptr inbounds nuw %struct.Agobj_s, ptr %28, i32 0, i32 0
  %30 = load i32, ptr %29, align 8
  %31 = and i32 %30, 3
  %32 = icmp eq i32 %31, 2
  br i1 %32, label %33, label %61

33:                                               ; preds = %27, %3
  %34 = load ptr, ptr %4, align 8, !tbaa !11
  %35 = getelementptr inbounds nuw %struct.Agobj_s, ptr %34, i32 0, i32 0
  %36 = load i32, ptr %35, align 8
  %37 = and i32 %36, 3
  %38 = icmp eq i32 %37, 3
  br i1 %38, label %39, label %42

39:                                               ; preds = %33
  %40 = load ptr, ptr %4, align 8, !tbaa !11
  %41 = getelementptr inbounds %struct.Agedge_s, ptr %40, i64 -1
  br label %45

42:                                               ; preds = %33
  %43 = load ptr, ptr %4, align 8, !tbaa !11
  %44 = getelementptr inbounds %struct.Agedge_s, ptr %43, i64 1
  br label %45

45:                                               ; preds = %42, %39
  %46 = phi ptr [ %41, %39 ], [ %44, %42 ]
  store ptr %46, ptr %7, align 8, !tbaa !28
  %47 = load ptr, ptr %5, align 8, !tbaa !18
  %48 = load ptr, ptr %7, align 8, !tbaa !28
  %49 = getelementptr inbounds nuw %struct.Agobj_s, ptr %48, i32 0, i32 1
  store ptr %47, ptr %49, align 8, !tbaa !13
  %50 = load i8, ptr %6, align 1, !tbaa !24, !range !26, !noundef !27
  %51 = trunc i8 %50 to i1
  %52 = zext i1 %51 to i32
  %53 = load ptr, ptr %7, align 8, !tbaa !28
  %54 = getelementptr inbounds nuw %struct.Agedge_s, ptr %53, i32 0, i32 0
  %55 = getelementptr inbounds nuw %struct.Agobj_s, ptr %54, i32 0, i32 0
  %56 = load i32, ptr %55, align 8
  %57 = and i32 %52, 1
  %58 = shl i32 %57, 2
  %59 = and i32 %56, -5
  %60 = or i32 %59, %58
  store i32 %60, ptr %55, align 8
  br label %61

61:                                               ; preds = %45, %27
  call void @llvm.lifetime.end.p0(i64 8, ptr %7) #10
  ret void
}

; Function Attrs: inlinehint nounwind uwtable
define internal zeroext i1 @streq(ptr noundef %0, ptr noundef %1) #2 {
  %3 = alloca ptr, align 8
  %4 = alloca ptr, align 8
  store ptr %0, ptr %3, align 8, !tbaa !7
  store ptr %1, ptr %4, align 8, !tbaa !7
  %5 = load ptr, ptr %3, align 8, !tbaa !7
  %6 = load ptr, ptr %4, align 8, !tbaa !7
  %7 = call i32 @strcmp(ptr noundef %5, ptr noundef %6) #11
  %8 = icmp eq i32 %7, 0
  ret i1 %8
}

; Function Attrs: nounwind uwtable
define ptr @aggetrec(ptr noundef %0, ptr noundef %1, i32 noundef %2) #0 {
  %4 = alloca ptr, align 8
  %5 = alloca ptr, align 8
  %6 = alloca ptr, align 8
  %7 = alloca i32, align 4
  %8 = alloca ptr, align 8
  %9 = alloca ptr, align 8
  %10 = alloca ptr, align 8
  %11 = alloca i32, align 4
  store ptr %0, ptr %5, align 8, !tbaa !3
  store ptr %1, ptr %6, align 8, !tbaa !7
  store i32 %2, ptr %7, align 4, !tbaa !9
  call void @llvm.lifetime.start.p0(i64 8, ptr %8) #10
  call void @llvm.lifetime.start.p0(i64 8, ptr %9) #10
  call void @llvm.lifetime.start.p0(i64 8, ptr %10) #10
  %12 = load ptr, ptr %5, align 8, !tbaa !3
  store ptr %12, ptr %8, align 8, !tbaa !11
  %13 = load ptr, ptr %8, align 8, !tbaa !11
  %14 = getelementptr inbounds nuw %struct.Agobj_s, ptr %13, i32 0, i32 1
  %15 = load ptr, ptr %14, align 8, !tbaa !13
  store ptr %15, ptr %9, align 8, !tbaa !18
  store ptr %15, ptr %10, align 8, !tbaa !18
  br label %16

16:                                               ; preds = %36, %3
  %17 = load ptr, ptr %9, align 8, !tbaa !18
  %18 = icmp ne ptr %17, null
  br i1 %18, label %19, label %26

19:                                               ; preds = %16
  %20 = load ptr, ptr %6, align 8, !tbaa !7
  %21 = load ptr, ptr %9, align 8, !tbaa !18
  %22 = getelementptr inbounds nuw %struct.Agrec_s, ptr %21, i32 0, i32 0
  %23 = load ptr, ptr %22, align 8, !tbaa !19
  %24 = call zeroext i1 @streq(ptr noundef %20, ptr noundef %23)
  %25 = xor i1 %24, true
  br label %26

26:                                               ; preds = %19, %16
  %27 = phi i1 [ false, %16 ], [ %25, %19 ]
  br i1 %27, label %28, label %37

28:                                               ; preds = %26
  %29 = load ptr, ptr %9, align 8, !tbaa !18
  %30 = getelementptr inbounds nuw %struct.Agrec_s, ptr %29, i32 0, i32 1
  %31 = load ptr, ptr %30, align 8, !tbaa !21
  store ptr %31, ptr %9, align 8, !tbaa !18
  %32 = load ptr, ptr %9, align 8, !tbaa !18
  %33 = load ptr, ptr %10, align 8, !tbaa !18
  %34 = icmp eq ptr %32, %33
  br i1 %34, label %35, label %36

35:                                               ; preds = %28
  store ptr null, ptr %4, align 8
  store i32 1, ptr %11, align 4
  br label %74

36:                                               ; preds = %28
  br label %16, !llvm.loop !22

37:                                               ; preds = %26
  %38 = load ptr, ptr %9, align 8, !tbaa !18
  %39 = icmp ne ptr %38, null
  br i1 %39, label %41, label %40

40:                                               ; preds = %37
  store ptr null, ptr %4, align 8
  store i32 1, ptr %11, align 4
  br label %74

41:                                               ; preds = %37
  %42 = load ptr, ptr %8, align 8, !tbaa !11
  %43 = getelementptr inbounds nuw %struct.Agobj_s, ptr %42, i32 0, i32 0
  %44 = load i32, ptr %43, align 8
  %45 = lshr i32 %44, 2
  %46 = and i32 %45, 1
  %47 = icmp ne i32 %46, 0
  br i1 %47, label %48, label %59

48:                                               ; preds = %41
  %49 = load i32, ptr %7, align 4, !tbaa !9
  %50 = icmp ne i32 %49, 0
  br i1 %50, label %51, label %58

51:                                               ; preds = %48
  %52 = load ptr, ptr %8, align 8, !tbaa !11
  %53 = getelementptr inbounds nuw %struct.Agobj_s, ptr %52, i32 0, i32 1
  %54 = load ptr, ptr %53, align 8, !tbaa !13
  %55 = load ptr, ptr %9, align 8, !tbaa !18
  %56 = icmp ne ptr %54, %55
  br i1 %56, label %57, label %58

57:                                               ; preds = %51
  call void (ptr, ...) @agerrorf(ptr noundef @.str)
  br label %58

58:                                               ; preds = %57, %51, %48
  br label %72

59:                                               ; preds = %41
  %60 = load ptr, ptr %9, align 8, !tbaa !18
  %61 = load ptr, ptr %10, align 8, !tbaa !18
  %62 = icmp ne ptr %60, %61
  br i1 %62, label %66, label %63

63:                                               ; preds = %59
  %64 = load i32, ptr %7, align 4, !tbaa !9
  %65 = icmp ne i32 %64, 0
  br i1 %65, label %66, label %71

66:                                               ; preds = %63, %59
  %67 = load ptr, ptr %8, align 8, !tbaa !11
  %68 = load ptr, ptr %9, align 8, !tbaa !18
  %69 = load i32, ptr %7, align 4, !tbaa !9
  %70 = icmp ne i32 %69, 0
  call void @set_data(ptr noundef %67, ptr noundef %68, i1 noundef zeroext %70)
  br label %71

71:                                               ; preds = %66, %63
  br label %72

72:                                               ; preds = %71, %58
  %73 = load ptr, ptr %9, align 8, !tbaa !18
  store ptr %73, ptr %4, align 8
  store i32 1, ptr %11, align 4
  br label %74

74:                                               ; preds = %72, %40, %35
  call void @llvm.lifetime.end.p0(i64 8, ptr %10) #10
  call void @llvm.lifetime.end.p0(i64 8, ptr %9) #10
  call void @llvm.lifetime.end.p0(i64 8, ptr %8) #10
  %75 = load ptr, ptr %4, align 8
  ret ptr %75
}