; Function Attrs: nounwind uwtable
define ptr @aggetrec(ptr noundef captures(none) %0, ptr noundef readonly captures(none) %1, i32 noundef %2) local_unnamed_addr #0 {
  %4 = getelementptr inbounds nuw i8, ptr %0, i64 16
  %5 = load ptr, ptr %4, align 8, !tbaa !3
  br label %6

6:                                                ; preds = %11, %3
  %.021 = phi ptr [ %5, %3 ], [ %13, %11 ]
  %.not = icmp eq ptr %.021, null
  br i1 %.not, label %.critedge26, label %7

7:                                                ; preds = %6
  %8 = load ptr, ptr %.021, align 8, !tbaa !12
  %9 = tail call i32 @strcmp(ptr noundef nonnull readonly dereferenceable(1) %1, ptr noundef nonnull readonly dereferenceable(1) %8) #10
  %10 = icmp eq i32 %9, 0
  br i1 %10, label %.critedge, label %11

11:                                               ; preds = %7
  %12 = getelementptr inbounds nuw i8, ptr %.021, i64 8
  %13 = load ptr, ptr %12, align 8, !tbaa !15
  %14 = icmp eq ptr %13, %5
  br i1 %14, label %.critedge26, label %6, !llvm.loop !16

.critedge:                                        ; preds = %7
  %15 = load i32, ptr %0, align 8
  %16 = and i32 %15, 4
  %.not23 = icmp eq i32 %16, 0
  br i1 %.not23, label %19, label %17

17:                                               ; preds = %.critedge
  %.not24 = icmp eq i32 %2, 0
  %.not25 = icmp eq ptr %5, %.021
  %or.cond27 = select i1 %.not24, i1 true, i1 %.not25
  br i1 %or.cond27, label %.critedge26, label %18

18:                                               ; preds = %17
  tail call void (ptr, ...) @agerrorf(ptr noundef nonnull @.str) #11
  br label %.critedge26

19:                                               ; preds = %.critedge
  %20 = icmp ne ptr %.021, %5
  %21 = icmp ne i32 %2, 0
  %or.cond = or i1 %21, %20
  br i1 %or.cond, label %22, label %.critedge26

22:                                               ; preds = %19
  store ptr %.021, ptr %4, align 8, !tbaa !3
  %23 = select i1 %21, i32 4, i32 0
  %24 = or disjoint i32 %15, %23
  store i32 %24, ptr %0, align 8
  %25 = and i32 %15, 2
  %switch.not.i = icmp eq i32 %25, 0
  br i1 %switch.not.i, label %.critedge26, label %26

26:                                               ; preds = %22
  %27 = and i32 %15, 3
  %28 = icmp eq i32 %27, 3
  %.v.i = select i1 %28, i64 -64, i64 64
  %29 = getelementptr inbounds i8, ptr %0, i64 %.v.i
  %30 = getelementptr inbounds nuw i8, ptr %29, i64 16
  store ptr %.021, ptr %30, align 8, !tbaa !3
  %31 = load i32, ptr %29, align 8
  %32 = and i32 %31, -5
  %33 = or disjoint i32 %32, %23
  store i32 %33, ptr %29, align 8
  br label %.critedge26

.critedge26:                                      ; preds = %6, %11, %26, %22, %18, %17, %19
  %.0 = phi ptr [ %.021, %19 ], [ %.021, %17 ], [ %.021, %18 ], [ %.021, %22 ], [ %.021, %26 ], [ null, %11 ], [ null, %6 ]
  ret ptr %.0
}